target datalayout = "e-m:e-p270:32:32-p271:32:32-p272:64:64-i64:64-i128:128-f80:128-n8:16:32:64-S128"
target triple = "x86_64-pc-linux-gnu"

%struct.lxb_html_token_t = type { ptr, ptr, i64, i64, ptr, ptr, ptr, ptr, ptr, i64, i64, i32 }
%struct.lxb_html_token_attr = type { ptr, ptr, ptr, ptr, ptr, ptr, i64, ptr, ptr, i32 }

; Function Attrs: nounwind uwtable
define hidden void @lxb_html_token_attr_remove(ptr noundef %0, ptr noundef %1) #0 {
  %3 = alloca ptr, align 8
  %4 = alloca ptr, align 8
  store ptr %0, ptr %3, align 8
  store ptr %1, ptr %4, align 8
  %5 = load ptr, ptr %3, align 8
  %6 = getelementptr inbounds %struct.lxb_html_token_t, ptr %5, i32 0, i32 6
  %7 = load ptr, ptr %6, align 8
  %8 = load ptr, ptr %4, align 8
  %9 = icmp eq ptr %7, %8
  br i1 %9, label %10, label %16

10:                                               ; preds = %2
  %11 = load ptr, ptr %4, align 8
  %12 = getelementptr inbounds %struct.lxb_html_token_attr, ptr %11, i32 0, i32 7
  %13 = load ptr, ptr %12, align 8
  %14 = load ptr, ptr %3, align 8
  %15 = getelementptr inbounds %struct.lxb_html_token_t, ptr %14, i32 0, i32 6
  store ptr %13, ptr %15, align 8
  br label %16

16:                                               ; preds = %10, %2
  %17 = load ptr, ptr %3, align 8
  %18 = getelementptr inbounds %struct.lxb_html_token_t, ptr %17, i32 0, i32 7
  %19 = load ptr, ptr %18, align 8
  %20 = load ptr, ptr %4, align 8
  %21 = icmp eq ptr %19, %20
  br i1 %21, label %22, label %28

22:                                               ; preds = %16
  %23 = load ptr, ptr %4, align 8
  %24 = getelementptr inbounds %struct.lxb_html_token_attr, ptr %23, i32 0, i32 8
  %25 = load ptr, ptr %24, align 8
  %26 = load ptr, ptr %3, align 8
  %27 = getelementptr inbounds %struct.lxb_html_token_t, ptr %26, i32 0, i32 7
  store ptr %25, ptr %27, align 8
  br label %28

28:                                               ; preds = %22, %16
  %29 = load ptr, ptr %4, align 8
  %30 = getelementptr inbounds %struct.lxb_html_token_attr, ptr %29, i32 0, i32 7
  %31 = load ptr, ptr %30, align 8
  %32 = icmp ne ptr %31, null
  br i1 %32, label %33, label %41

33:                                               ; preds = %28
  %34 = load ptr, ptr %4, align 8
  %35 = getelementptr inbounds %struct.lxb_html_token_attr, ptr %34, i32 0, i32 8
  %36 = load ptr, ptr %35, align 8
  %37 = load ptr, ptr %4, align 8
  %38 = getelementptr inbounds %struct.lxb_html_token_attr, ptr %37, i32 0, i32 7
  %39 = load ptr, ptr %38, align 8
  %40 = getelementptr inbounds %struct.lxb_html_token_attr, ptr %39, i32 0, i32 8
  store ptr %36, ptr %40, align 8
  br label %41

41:                                               ; preds = %33, %28
  %42 = load ptr, ptr %4, align 8
  %43 = getelementptr inbounds %struct.lxb_html_token_attr, ptr %42, i32 0, i32 8
  %44 = load ptr, ptr %43, align 8
  %45 = icmp ne ptr %44, null
  br i1 %45, label %46, label %54

46:                                               ; preds = %41
  %47 = load ptr, ptr %4, align 8
  %48 = getelementptr inbounds %struct.lxb_html_token_attr, ptr %47, i32 0, i32 7
  %49 = load ptr, ptr %48, align 8
  %50 = load ptr, ptr %4, align 8
  %51 = getelementptr inbounds %struct.lxb_html_token_attr, ptr %50, i32 0, i32 8
  %52 = load ptr, ptr %51, align 8
  %53 = getelementptr inbounds %struct.lxb_html_token_attr, ptr %52, i32 0, i32 7
  store ptr %49, ptr %53, align 8
  br label %54

54:                                               ; preds = %46, %41
  %55 = load ptr, ptr %4, align 8
  %56 = getelementptr inbounds %struct.lxb_html_token_attr, ptr %55, i32 0, i32 7
  store ptr null, ptr %56, align 8
  %57 = load ptr, ptr %4, align 8
  %58 = getelementptr inbounds %struct.lxb_html_token_attr, ptr %57, i32 0, i32 8
  store ptr null, ptr %58, align 8
  ret void
}