; Function Attrs: mustprogress nofree norecurse nosync nounwind willreturn memory(write, argmem: readwrite, inaccessiblemem: none) uwtable
define hidden void @lxb_html_token_attr_remove(ptr nocapture noundef %0, ptr noundef %1) local_unnamed_addr #2 {
  %3 = getelementptr inbounds i8, ptr %0, i64 48
  %4 = load ptr, ptr %3, align 8
  %5 = icmp eq ptr %4, %1
  br i1 %5, label %6, label %9

6:                                                ; preds = %2
  %7 = getelementptr inbounds i8, ptr %1, i64 56
  %8 = load ptr, ptr %7, align 8
  store ptr %8, ptr %3, align 8
  br label %9

9:                                                ; preds = %6, %2
  %10 = getelementptr inbounds i8, ptr %0, i64 56
  %11 = load ptr, ptr %10, align 8
  %12 = icmp eq ptr %11, %1
  br i1 %12, label %13, label %16

13:                                               ; preds = %9
  %14 = getelementptr inbounds i8, ptr %1, i64 64
  %15 = load ptr, ptr %14, align 8
  store ptr %15, ptr %10, align 8
  br label %16

16:                                               ; preds = %13, %9
  %17 = getelementptr inbounds i8, ptr %1, i64 56
  %18 = load ptr, ptr %17, align 8
  %.not = icmp eq ptr %18, null
  %.phi.trans.insert = getelementptr inbounds i8, ptr %1, i64 64
  %.pre = load ptr, ptr %.phi.trans.insert, align 8
  br i1 %.not, label %._crit_edge, label %19

19:                                               ; preds = %16
  %20 = getelementptr inbounds i8, ptr %18, i64 64
  store ptr %.pre, ptr %20, align 8
  br label %._crit_edge

._crit_edge:                                      ; preds = %16, %19
  %.not18 = icmp eq ptr %.pre, null
  br i1 %.not18, label %24, label %21

21:                                               ; preds = %._crit_edge
  %22 = load ptr, ptr %17, align 8
  %23 = getelementptr inbounds i8, ptr %.pre, i64 56
  store ptr %22, ptr %23, align 8
  br label %24

24:                                               ; preds = %21, %._crit_edge
  tail call void @llvm.memset.p0.i64(ptr noundef nonnull align 8 dereferenceable(16) %17, i8 0, i64 16, i1 false)
  ret void
}